target datalayout = "e-m:e-p270:32:32-p271:32:32-p272:64:64-i64:64-i128:128-f80:128-n8:16:32:64-S128"
target triple = "x86_64-unknown-linux-gnu"

; Function Attrs: inlinehint mustprogress nounwind uwtable
define linkonce_odr noundef double @_ZN8QuantLib7squaredIdEET_S1_(double noundef %x) #5 comdat {
entry:
  %x.addr = alloca double, align 8
  store double %x, ptr %x.addr, align 8, !tbaa !46
  %0 = load double, ptr %x.addr, align 8, !tbaa !46
  %1 = load double, ptr %x.addr, align 8, !tbaa !46
  %mul = fmul double %0, %1
  ret double %mul
}

; Function Attrs: mustprogress uwtable
define noundef double @_ZNK8QuantLib21HestonBlackVolSurface17blackVarianceImplEdd(ptr noundef nonnull align 8 dereferenceable(136) %this, double noundef %t, double noundef %strike) unnamed_addr #2 align 2 {
entry:
  %this.addr = alloca ptr, align 8
  %t.addr = alloca double, align 8
  %strike.addr = alloca double, align 8
  store ptr %this, ptr %this.addr, align 8, !tbaa !3
  store double %t, ptr %t.addr, align 8, !tbaa !46
  store double %strike, ptr %strike.addr, align 8, !tbaa !46
  %this1 = load ptr, ptr %this.addr, align 8
  %0 = load double, ptr %t.addr, align 8, !tbaa !46
  %1 = load double, ptr %strike.addr, align 8, !tbaa !46
  %vtable = load ptr, ptr %this1, align 8, !tbaa !12
  %vfn = getelementptr inbounds ptr, ptr %vtable, i64 14
  %2 = load ptr, ptr %vfn, align 8
  %call = call noundef double %2(ptr noundef nonnull align 8 dereferenceable(136) %this1, double noundef %0, double noundef %1)
  %call2 = call noundef double @_ZN8QuantLib7squaredIdEET_S1_(double noundef %call)
  %3 = load double, ptr %t.addr, align 8, !tbaa !46
  %mul = fmul double %call2, %3
  ret double %mul
}