; Function Attrs: mustprogress uwtable
define noundef double @_ZNK8QuantLib21HestonBlackVolSurface17blackVarianceImplEdd(ptr noundef nonnull align 8 dereferenceable(136) %this, double noundef %t, double noundef %strike) unnamed_addr #8 align 2 {
entry:
  %vtable = load ptr, ptr %this, align 8, !tbaa !35
  %vfn = getelementptr inbounds i8, ptr %vtable, i64 112
  %0 = load ptr, ptr %vfn, align 8
  %call = tail call noundef double %0(ptr noundef nonnull align 8 dereferenceable(136) %this, double noundef %t, double noundef %strike)
  %mul.i = fmul double %call, %call
  %mul = fmul double %t, %mul.i
  ret double %mul
}